; Function Attrs: mustprogress uwtable
define dso_local void @_ZN13GroupProbElem14set_prob_tableEP16ProbabilityTableIj8ProbNameE(ptr noundef nonnull readonly align 8 dereferenceable(96) %0, ptr noundef %1) unnamed_addr #3 align 2 personality ptr @__gxx_personality_v0 {
  %3 = getelementptr inbounds i8, ptr %0, i64 72
  %4 = load ptr, ptr %3, align 8
  %5 = getelementptr inbounds i8, ptr %0, i64 56
  %.not10 = icmp eq ptr %4, %5
  br i1 %.not10, label %._crit_edge, label %.lr.ph

.lr.ph:                                           ; preds = %2, %18
  %.sroa.06.011 = phi ptr [ %19, %18 ], [ %4, %2 ]
  %6 = getelementptr inbounds i8, ptr %.sroa.06.011, i64 32
  %7 = getelementptr inbounds i8, ptr %.sroa.06.011, i64 40
  %8 = load ptr, ptr %7, align 8
  %9 = load i32, ptr %6, align 8
  %10 = load ptr, ptr %8, align 8
  %11 = getelementptr inbounds i8, ptr %10, i64 16
  %12 = load ptr, ptr %11, align 8
  %13 = tail call noundef i32 %12(ptr noundef nonnull align 8 dereferenceable(52) %8, i32 noundef %9)
  %14 = icmp sgt i32 %13, 0
  br i1 %14, label %15, label %18

15:                                               ; preds = %.lr.ph
  %16 = tail call noalias noundef nonnull dereferenceable(8) ptr @_Znwm(i64 noundef 8) #25
  store i32 %13, ptr %16, align 4
  %17 = getelementptr inbounds i8, ptr %16, i64 4
  store i32 %9, ptr %17, align 4
  tail call void @_ZN16ProbabilityTableIj8ProbNameE13sorted_insertEP10TableEntryIjS0_E(ptr noundef nonnull align 8 dereferenceable(32) %1, ptr noundef nonnull %16)
  br label %18

18:                                               ; preds = %.lr.ph, %15
  %19 = tail call noundef ptr @_ZSt18_Rb_tree_incrementPSt18_Rb_tree_node_base(ptr noundef nonnull %.sroa.06.011) #24
  %.not = icmp eq ptr %19, %5
  br i1 %.not, label %._crit_edge, label %.lr.ph, !llvm.loop !20

._crit_edge:                                      ; preds = %18, %2
  ret void
}